#include <math.h>
#include <stdio.h>
#include <stdlib.h>
#include <string.h>


int main()
{
    int a[20]={0};
    int j,k,i=0,n=0,m=0;



        while((scanf("%d",&a[i]))&&(a[i]>=0))
        {
        
          if(a[i]==0)
		{
			for(j=0;j<i-1;j++)
			{
				for(k=j+1;k<i;k++)
				if(a[j]==2*a[k]||a[k]==2*a[j])
				m++;
			}
			printf("%d\n",m);
			m=0;
			i=0;
			for(j=0;j<20;j++)
			a[j]=0;
		}
    i++;


        }



    return 0;
}